target datalayout = "e-m:e-p270:32:32-p271:32:32-p272:64:64-i64:64-i128:128-f80:128-n8:16:32:64-S128"
target triple = "x86_64-pc-linux-gnu"

%"class.std::optional.20" = type { %"struct.std::_Optional_base.21" }
%"struct.std::_Optional_base.21" = type { %"struct.std::_Optional_payload.23" }
%"struct.std::_Optional_payload.23" = type { %"struct.std::_Optional_payload_base.base.25", [7 x i8] }
%"struct.std::_Optional_payload_base.base.25" = type <{ %"union.std::_Optional_payload_base<const Luau::TypeFunctionType *>::_Storage", i8 }>
%"union.std::_Optional_payload_base<const Luau::TypeFunctionType *>::_Storage" = type { ptr }
%"struct.Luau::TypeFunctionProperty" = type { %"class.std::optional.20", %"class.std::optional.20" }
%"struct.std::_Optional_payload_base.24" = type <{ %"union.std::_Optional_payload_base<const Luau::TypeFunctionType *>::_Storage", i8, [7 x i8] }>

; Function Attrs: mustprogress nounwind uwtable
define linkonce_odr dso_local noundef zeroext i1 @_ZNKSt19_Optional_base_implIPKN4Luau16TypeFunctionTypeESt14_Optional_baseIS3_Lb1ELb1EEE13_M_is_engagedEv(ptr noundef nonnull align 1 dereferenceable(1) %0) #2 comdat align 2 {
  %2 = alloca ptr, align 8
  store ptr %0, ptr %2, align 8, !tbaa !376
  %3 = load ptr, ptr %2, align 8
  %4 = getelementptr inbounds nuw %"struct.std::_Optional_base.21", ptr %3, i32 0, i32 0
  %5 = getelementptr inbounds nuw %"struct.std::_Optional_payload_base.24", ptr %4, i32 0, i32 1
  %6 = load i8, ptr %5, align 8, !tbaa !256, !range !15, !noundef !16
  %7 = trunc i8 %6 to i1
  ret i1 %7
}

; Function Attrs: mustprogress nounwind uwtable
define linkonce_odr dso_local noundef zeroext i1 @_ZNKSt8optionalIPKN4Luau16TypeFunctionTypeEEcvbEv(ptr noundef nonnull align 8 dereferenceable(16) %0) #2 comdat align 2 {
  %2 = alloca ptr, align 8
  store ptr %0, ptr %2, align 8, !tbaa !63
  %3 = load ptr, ptr %2, align 8
  %4 = call noundef zeroext i1 @_ZNKSt19_Optional_base_implIPKN4Luau16TypeFunctionTypeESt14_Optional_baseIS3_Lb1ELb1EEE13_M_is_engagedEv(ptr noundef nonnull align 1 dereferenceable(1) %3) #17
  ret i1 %4
}

; Function Attrs: mustprogress nounwind uwtable
define dso_local noundef zeroext i1 @_ZNK4Luau20TypeFunctionProperty10isReadOnlyEv(ptr noundef nonnull align 8 dereferenceable(32) %0) #2 align 2 {
  %2 = alloca ptr, align 8
  store ptr %0, ptr %2, align 8, !tbaa !118
  %3 = load ptr, ptr %2, align 8
  %4 = getelementptr inbounds nuw %"struct.Luau::TypeFunctionProperty", ptr %3, i32 0, i32 0
  %5 = call noundef zeroext i1 @_ZNKSt8optionalIPKN4Luau16TypeFunctionTypeEEcvbEv(ptr noundef nonnull align 8 dereferenceable(16) %4) #17
  br i1 %5, label %6, label %10

6:                                                ; preds = %1
  %7 = getelementptr inbounds nuw %"struct.Luau::TypeFunctionProperty", ptr %3, i32 0, i32 1
  %8 = call noundef zeroext i1 @_ZNKSt8optionalIPKN4Luau16TypeFunctionTypeEEcvbEv(ptr noundef nonnull align 8 dereferenceable(16) %7) #17
  %9 = xor i1 %8, true
  br label %10

10:                                               ; preds = %6, %1
  %11 = phi i1 [ false, %1 ], [ %9, %6 ]
  ret i1 %11
}